target datalayout = "e-m:e-p270:32:32-p271:32:32-p272:64:64-i64:64-i128:128-f80:128-n8:16:32:64-S128"
target triple = "x86_64-pc-linux-gnu"

%"class.facebook::yoga::Config" = type { ptr, ptr, i8, i32, %"class.std::bitset", i32, float, ptr }
%"class.std::bitset" = type { %"struct.std::_Base_bitset" }
%"struct.std::_Base_bitset" = type { i64 }

; Function Attrs: mustprogress nounwind uwtable
define linkonce_odr noundef zeroext i1 @_ZNKSt12_Base_bitsetILm1EE11_M_is_equalERKS0_(ptr noundef nonnull align 8 dereferenceable(8) %0, ptr noundef nonnull align 8 dereferenceable(8) %1) #1 comdat align 2 {
  %3 = alloca ptr, align 8
  %4 = alloca ptr, align 8
  store ptr %0, ptr %3, align 8, !tbaa !46
  store ptr %1, ptr %4, align 8, !tbaa !46
  %5 = load ptr, ptr %3, align 8
  %6 = getelementptr inbounds nuw %"struct.std::_Base_bitset", ptr %5, i32 0, i32 0
  %7 = load i64, ptr %6, align 8, !tbaa !48
  %8 = load ptr, ptr %4, align 8, !tbaa !46
  %9 = getelementptr inbounds nuw %"struct.std::_Base_bitset", ptr %8, i32 0, i32 0
  %10 = load i64, ptr %9, align 8, !tbaa !48
  %11 = icmp eq i64 %7, %10
  ret i1 %11
}

; Function Attrs: mustprogress nounwind uwtable
define noundef zeroext i1 @_ZNK8facebook4yoga6Config14useWebDefaultsEv(ptr noundef nonnull align 8 dereferenceable(48) %0) #1 align 2 {
  %2 = alloca ptr, align 8
  store ptr %0, ptr %2, align 8, !tbaa !4
  %3 = load ptr, ptr %2, align 8
  %4 = getelementptr inbounds nuw %"class.facebook::yoga::Config", ptr %3, i32 0, i32 2
  %5 = load i8, ptr %4, align 8
  %6 = and i8 %5, 1
  %7 = trunc i8 %6 to i1
  ret i1 %7
}

; Function Attrs: mustprogress nounwind uwtable
define noundef float @_ZNK8facebook4yoga6Config19getPointScaleFactorEv(ptr noundef nonnull align 8 dereferenceable(48) %0) #1 align 2 {
  %2 = alloca ptr, align 8
  store ptr %0, ptr %2, align 8, !tbaa !4
  %3 = load ptr, ptr %2, align 8
  %4 = getelementptr inbounds nuw %"class.facebook::yoga::Config", ptr %3, i32 0, i32 6
  %5 = load float, ptr %4, align 4, !tbaa !20
  ret float %5
}

; Function Attrs: mustprogress nounwind uwtable
define linkonce_odr noundef zeroext i1 @_ZNKSt6bitsetILm1EEeqERKS0_(ptr noundef nonnull align 8 dereferenceable(8) %0, ptr noundef nonnull align 8 dereferenceable(8) %1) #1 comdat align 2 {
  %3 = alloca ptr, align 8
  %4 = alloca ptr, align 8
  store ptr %0, ptr %3, align 8, !tbaa !18
  store ptr %1, ptr %4, align 8, !tbaa !18
  %5 = load ptr, ptr %3, align 8
  %6 = load ptr, ptr %4, align 8, !tbaa !18
  %7 = call noundef zeroext i1 @_ZNKSt12_Base_bitsetILm1EE11_M_is_equalERKS0_(ptr noundef nonnull align 8 dereferenceable(8) %5, ptr noundef nonnull align 8 dereferenceable(8) %6) #6
  ret i1 %7
}

; Function Attrs: mustprogress nounwind uwtable
define i64 @_ZNK8facebook4yoga6Config21getEnabledExperimentsEv(ptr noundef nonnull align 8 dereferenceable(48) %0) #1 align 2 {
  %2 = alloca %"class.std::bitset", align 8
  %3 = alloca ptr, align 8
  store ptr %0, ptr %3, align 8, !tbaa !4
  %4 = load ptr, ptr %3, align 8
  %5 = getelementptr inbounds nuw %"class.facebook::yoga::Config", ptr %4, i32 0, i32 4
  call void @llvm.memcpy.p0.p0.i64(ptr align 8 %2, ptr align 8 %5, i64 8, i1 false)
  %6 = getelementptr inbounds nuw %"class.std::bitset", ptr %2, i32 0, i32 0
  %7 = getelementptr inbounds nuw %"struct.std::_Base_bitset", ptr %6, i32 0, i32 0
  %8 = load i64, ptr %7, align 8
  ret i64 %8
}

; Function Attrs: mustprogress nounwind uwtable
define noundef i32 @_ZNK8facebook4yoga6Config9getErrataEv(ptr noundef nonnull align 8 dereferenceable(48) %0) #1 align 2 {
  %2 = alloca ptr, align 8
  store ptr %0, ptr %2, align 8, !tbaa !4
  %3 = load ptr, ptr %2, align 8
  %4 = getelementptr inbounds nuw %"class.facebook::yoga::Config", ptr %3, i32 0, i32 5
  %5 = load i32, ptr %4, align 8, !tbaa !9
  ret i32 %5
}

; Function Attrs: mustprogress uwtable
define hidden noundef zeroext i1 @_ZN8facebook4yoga29configUpdateInvalidatesLayoutERKNS0_6ConfigES3_(ptr noundef nonnull align 8 dereferenceable(48) %0, ptr noundef nonnull align 8 dereferenceable(48) %1) #0 {
  %3 = alloca ptr, align 8
  %4 = alloca ptr, align 8
  %5 = alloca %"class.std::bitset", align 8
  %6 = alloca %"class.std::bitset", align 8
  store ptr %0, ptr %3, align 8, !tbaa !4
  store ptr %1, ptr %4, align 8, !tbaa !4
  %7 = load ptr, ptr %3, align 8, !tbaa !4
  %8 = call noundef i32 @_ZNK8facebook4yoga6Config9getErrataEv(ptr noundef nonnull align 8 dereferenceable(48) %7)
  %9 = load ptr, ptr %4, align 8, !tbaa !4
  %10 = call noundef i32 @_ZNK8facebook4yoga6Config9getErrataEv(ptr noundef nonnull align 8 dereferenceable(48) %9)
  %11 = icmp ne i32 %8, %10
  call void @llvm.lifetime.start.p0(i64 8, ptr %5) #6
  call void @llvm.lifetime.start.p0(i64 8, ptr %6) #6
  br i1 %11, label %37, label %12

12:                                               ; preds = %2
  %13 = load ptr, ptr %3, align 8, !tbaa !4
  %14 = call i64 @_ZNK8facebook4yoga6Config21getEnabledExperimentsEv(ptr noundef nonnull align 8 dereferenceable(48) %13)
  %15 = getelementptr inbounds nuw %"class.std::bitset", ptr %5, i32 0, i32 0
  %16 = getelementptr inbounds nuw %"struct.std::_Base_bitset", ptr %15, i32 0, i32 0
  store i64 %14, ptr %16, align 8
  %17 = load ptr, ptr %4, align 8, !tbaa !4
  %18 = call i64 @_ZNK8facebook4yoga6Config21getEnabledExperimentsEv(ptr noundef nonnull align 8 dereferenceable(48) %17)
  %19 = getelementptr inbounds nuw %"class.std::bitset", ptr %6, i32 0, i32 0
  %20 = getelementptr inbounds nuw %"struct.std::_Base_bitset", ptr %19, i32 0, i32 0
  store i64 %18, ptr %20, align 8
  %21 = call noundef zeroext i1 @_ZNKSt6bitsetILm1EEeqERKS0_(ptr noundef nonnull align 8 dereferenceable(8) %5, ptr noundef nonnull align 8 dereferenceable(8) %6) #6
  %22 = xor i1 %21, true
  br i1 %22, label %37, label %23

23:                                               ; preds = %12
  %24 = load ptr, ptr %3, align 8, !tbaa !4
  %25 = call noundef float @_ZNK8facebook4yoga6Config19getPointScaleFactorEv(ptr noundef nonnull align 8 dereferenceable(48) %24)
  %26 = load ptr, ptr %4, align 8, !tbaa !4
  %27 = call noundef float @_ZNK8facebook4yoga6Config19getPointScaleFactorEv(ptr noundef nonnull align 8 dereferenceable(48) %26)
  %28 = fcmp une float %25, %27
  br i1 %28, label %37, label %29

29:                                               ; preds = %23
  %30 = load ptr, ptr %3, align 8, !tbaa !4
  %31 = call noundef zeroext i1 @_ZNK8facebook4yoga6Config14useWebDefaultsEv(ptr noundef nonnull align 8 dereferenceable(48) %30)
  %32 = zext i1 %31 to i32
  %33 = load ptr, ptr %4, align 8, !tbaa !4
  %34 = call noundef zeroext i1 @_ZNK8facebook4yoga6Config14useWebDefaultsEv(ptr noundef nonnull align 8 dereferenceable(48) %33)
  %35 = zext i1 %34 to i32
  %36 = icmp ne i32 %32, %35
  br label %37

37:                                               ; preds = %29, %23, %12, %2
  %38 = phi i1 [ true, %23 ], [ true, %12 ], [ true, %2 ], [ %36, %29 ]
  call void @llvm.lifetime.end.p0(i64 8, ptr %6) #6
  call void @llvm.lifetime.end.p0(i64 8, ptr %5) #6
  ret i1 %38
}