; Function Attrs: mustprogress nofree norecurse nosync nounwind willreturn memory(argmem: read) uwtable
define hidden noundef zeroext i1 @_ZN8facebook4yoga29configUpdateInvalidatesLayoutERKNS0_6ConfigES3_(ptr noundef nonnull readonly align 8 captures(none) dereferenceable(48) %0, ptr noundef nonnull readonly align 8 captures(none) dereferenceable(48) %1) local_unnamed_addr #0 {
  %3 = getelementptr inbounds nuw i8, ptr %0, i64 32
  %4 = load i32, ptr %3, align 8, !tbaa !4
  %5 = getelementptr inbounds nuw i8, ptr %1, i64 32
  %6 = load i32, ptr %5, align 8, !tbaa !4
  %.not = icmp eq i32 %4, %6
  br i1 %.not, label %7, label %24

7:                                                ; preds = %2
  %8 = getelementptr inbounds nuw i8, ptr %0, i64 24
  %.sroa.0.0.copyload.i = load i64, ptr %8, align 8
  %9 = getelementptr inbounds nuw i8, ptr %1, i64 24
  %.sroa.0.0.copyload.i8 = load i64, ptr %9, align 8
  %10 = icmp eq i64 %.sroa.0.0.copyload.i, %.sroa.0.0.copyload.i8
  br i1 %10, label %11, label %24

11:                                               ; preds = %7
  %12 = getelementptr inbounds nuw i8, ptr %0, i64 36
  %13 = load float, ptr %12, align 4, !tbaa !16
  %14 = getelementptr inbounds nuw i8, ptr %1, i64 36
  %15 = load float, ptr %14, align 4, !tbaa !16
  %16 = fcmp une float %13, %15
  br i1 %16, label %24, label %17

17:                                               ; preds = %11
  %18 = getelementptr inbounds nuw i8, ptr %0, i64 16
  %19 = load i8, ptr %18, align 8
  %20 = getelementptr inbounds nuw i8, ptr %1, i64 16
  %21 = load i8, ptr %20, align 8
  %22 = xor i8 %21, %19
  %23 = trunc i8 %22 to i1
  br label %24

24:                                               ; preds = %17, %11, %7, %2
  %25 = phi i1 [ true, %11 ], [ true, %7 ], [ true, %2 ], [ %23, %17 ]
  ret i1 %25
}